; Function Attrs: mustprogress nofree norecurse nosync nounwind willreturn memory(readwrite, inaccessiblemem: none) uwtable
define range(i32 -2, 1) i32 @inflateGetHeader(ptr noundef readonly %0, ptr noundef %1) local_unnamed_addr #4 {
  %3 = icmp eq ptr %0, null
  br i1 %3, label %16, label %4

4:                                                ; preds = %2
  %5 = getelementptr inbounds nuw i8, ptr %0, i64 56
  %6 = load ptr, ptr %5, align 8, !tbaa !3
  %7 = icmp eq ptr %6, null
  br i1 %7, label %16, label %8

8:                                                ; preds = %4
  %9 = getelementptr inbounds nuw i8, ptr %6, i64 8
  %10 = load i32, ptr %9, align 8, !tbaa !34
  %11 = and i32 %10, 2
  %12 = icmp eq i32 %11, 0
  br i1 %12, label %16, label %13

13:                                               ; preds = %8
  %14 = getelementptr inbounds nuw i8, ptr %6, i64 40
  store ptr %1, ptr %14, align 8, !tbaa !21
  %15 = getelementptr inbounds nuw i8, ptr %1, i64 72
  store i32 0, ptr %15, align 8, !tbaa !50
  br label %16

16:                                               ; preds = %8, %2, %4, %13
  %.0 = phi i32 [ 0, %13 ], [ -2, %4 ], [ -2, %2 ], [ -2, %8 ]
  ret i32 %.0
}